; Function Attrs: mustprogress nofree norecurse nosync nounwind willreturn memory(argmem: write) uwtable
define void @_ZN8facebook5velox11StreamArenaC2EPNS0_6memory10MemoryPoolE(ptr nocapture noundef nonnull writeonly align 8 dereferenceable(152) %this, ptr noundef %pool) unnamed_addr #0 align 2 {
entry:
  store ptr getelementptr inbounds ({ [7 x ptr] }, ptr @_ZTVN8facebook5velox11StreamArenaE, i64 0, i32 0, i64 2), ptr %this, align 8
  %pool_ = getelementptr inbounds i8, ptr %this, i64 8
  store ptr %pool, ptr %pool_, align 8
  %allocationQuantum_ = getelementptr inbounds i8, ptr %this, i64 16
  store i64 2, ptr %allocationQuantum_, align 8
  %allocations_ = getelementptr inbounds i8, ptr %this, i64 24
  %currentRun_ = getelementptr inbounds i8, ptr %this, i64 88
  tail call void @llvm.memset.p0.i64(ptr noundef nonnull align 8 dereferenceable(60) %allocations_, i8 0, i64 60, i1 false)
  tail call void @llvm.memset.p0.i64(ptr noundef nonnull align 8 dereferenceable(64) %currentRun_, i8 0, i64 64, i1 false)
  ret void
}